Certificate:
    Data:
        Version: 3 (0x2)
        Serial Number: 1 (0x1)
        Signature Algorithm: sha256WithRSAEncryption
        Issuer: C=CN, ST=HeNan, L=NanYang, O=gproxy, OU=IT, CN=gproxy.com/emailAddress=ca@gproxy.com
        Validity
            Not Before: Nov 17 13:59:17 2024 GMT
            Not After : Nov 17 13:59:17 2027 GMT
        Subject: C=CN, ST=HeNan, O=gproxy, OU=IT, CN=gproxy.com/emailAddress=server@gproxy.com
        Subject Public Key Info:
            Public Key Algorithm: rsaEncryption
                Public-Key: (4096 bit)
                Modulus:
                    00:a5:4b:a9:e5:3f:b1:6f:fd:f2:f1:3e:30:cf:14:
                    a8:69:ed:f6:fc:30:b9:ef:3a:7a:ec:c9:6f:a6:90:
                    7c:dc:1f:2f:54:97:cf:70:5b:f0:6e:68:ff:b5:7a:
                    25:e5:78:6d:07:4d:a6:b1:90:6e:f0:8a:f3:af:ec:
                    e7:66:97:01:79:b8:3e:44:47:7f:13:ad:f7:3d:54:
                    fc:d8:a8:e7:9e:24:a6:03:74:6f:b4:a9:47:bd:65:
                    1c:57:01:7f:3e:65:0f:90:72:74:3b:b0:b2:7b:b5:
                    ec:5b:fc:09:92:49:74:6c:eb:b7:4d:23:29:ed:7c:
                    f5:49:9b:97:e9:db:5b:ab:7f:54:2d:8e:da:df:65:
                    85:ce:19:06:a7:4c:bb:ac:02:fa:cd:e7:e0:c2:5d:
                    af:08:23:f9:7e:fe:e1:50:44:9c:7a:9e:92:7c:cd:
                    23:03:8e:bc:9c:b6:58:3f:d5:0f:60:b5:50:cc:23:
                    ab:6c:71:71:68:29:22:0e:31:31:34:b7:ae:37:94:
                    37:d7:01:bd:4c:fe:14:fc:ec:c4:2d:4d:8a:9c:8a:
                    a7:db:da:de:d9:8a:39:a6:c0:16:6c:26:df:a8:61:
                    2b:5c:5d:f8:39:bf:89:69:66:40:59:64:59:47:12:
                    4d:7f:34:27:6d:4c:72:8d:fb:e6:90:01:72:81:57:
                    52:7d:f6:fb:fc:64:ad:b2:bd:db:43:e1:0a:6f:f0:
                    44:21:76:13:78:9c:1a:36:9d:d0:10:b6:4b:9c:e9:
                    3c:12:0c:b3:e8:50:40:9d:5f:03:2c:11:84:90:c9:
                    7e:ff:65:23:90:50:72:5f:f5:9d:a3:6b:43:2e:0b:
                    4e:6b:5e:f8:07:46:f7:17:8f:99:38:f6:87:d7:b5:
                    3f:d3:1a:44:f8:ad:8f:b5:68:a2:96:87:69:8b:b6:
                    81:c6:0d:3a:fb:ee:00:c8:27:6f:de:0f:4b:02:ed:
                    52:a6:53:64:3b:e5:60:b0:4a:a9:ef:36:36:dd:84:
                    30:25:ec:94:29:f5:3a:f2:75:c7:8b:29:b6:f8:66:
                    2d:89:e9:cf:87:29:5f:81:67:ae:0c:b5:fa:dd:de:
                    a0:c6:2b:49:78:4a:5b:6c:2a:fa:60:1c:87:bc:01:
                    f3:b3:b7:69:64:d3:44:b5:60:36:78:bc:ba:02:31:
                    01:05:ef:62:0c:0f:27:cf:b0:1e:b9:87:eb:34:78:
                    6c:fd:61:eb:3e:54:34:46:a8:90:43:82:73:9c:a3:
                    cd:e9:6d:4e:cb:40:81:b3:03:79:ee:14:27:c9:5f:
                    e9:e6:47:d0:5c:0c:4d:0e:30:aa:ed:ce:e8:31:60:
                    05:41:b0:90:8e:89:00:de:85:5e:92:7b:67:54:50:
                    8d:5b:91
                Exponent: 65537 (0x10001)
        X509v3 extensions:
            X509v3 Basic Constraints: 
                CA:FALSE
            X509v3 Subject Key Identifier: 
                9E:4E:2A:98:10:64:1A:EB:71:6B:66:54:27:9C:6C:66:BC:D9:03:38
            X509v3 Authority Key Identifier: 
                03:B2:99:01:30:B5:78:40:84:C2:1A:5F:4E:89:5F:C8:1F:CE:C7:FD
            X509v3 Subject Alternative Name: 
                DNS:*.gproxy.com, DNS:*.demo.com, IP Address:192.168.10.181, IP Address:192.168.10.182, IP Address:192.168.10.183, IP Address:192.168.10.184
    Signature Algorithm: sha256WithRSAEncryption
    Signature Value:
        b7:8e:12:72:87:63:35:86:6b:64:0e:7d:2d:b9:b1:3e:61:b0:
        7c:9f:ee:ac:83:88:64:3a:18:6f:98:03:bf:f4:b4:00:1b:b7:
        1d:62:83:6a:63:4d:15:41:ff:88:31:2c:d3:75:19:7b:1f:19:
        2d:0a:0e:b5:10:cb:7d:51:bd:28:92:30:f8:f3:95:e1:cb:31:
        82:74:68:9d:e4:1a:95:47:df:0b:3b:3a:e2:ca:dd:f6:58:30:
        80:0a:71:e6:60:6c:c0:7a:0c:85:8f:25:ef:d3:b8:19:0b:e1:
        e3:2b:a0:9c:d4:76:9a:f1:10:a1:e0:e3:ff:19:37:52:e2:8f:
        3d:24:a6:12:62:3f:7b:23:d7:9e:0c:d7:af:44:96:6b:bf:1c:
        da:6d:8c:99:ee:da:06:b4:26:43:43:2a:62:78:dc:5d:2e:3d:
        25:59:c9:3c:18:96:1e:93:f4:0d:6a:a7:a6:8c:f7:a6:56:10:
        c8:2f:16:b6:b5:13:46:3a:4a:da:be:26:86:e8:31:9f:26:26:
        9d:b5:d2:ac:6b:f5:85:9e:94:85:fb:12:5a:bf:cd:60:2d:6e:
        84:73:00:87:7e:4a:bc:3c:6e:99:57:c8:11:a1:c3:05:5d:93:
        97:16:df:a5:51:0b:71:5e:41:81:04:ad:03:ae:2a:9d:fd:a6:
        ca:7d:6e:13:ab:f1:f3:d0:05:bb:4f:3c:42:8b:ab:00:bd:06:
        09:41:9d:d5:df:fc:c2:6b:54:52:73:38:e7:8f:30:27:7a:99:
        c8:79:1e:5b:a7:21:f2:68:7a:c2:8c:70:db:96:68:cb:06:77:
        a8:5d:29:31:cb:6a:6c:27:1f:25:3f:26:46:a2:0a:c3:7a:f2:
        6c:0b:62:bc:c6:d8:a1:10:88:69:4b:76:be:73:aa:8d:06:f4:
        ce:7c:e7:01:d6:f9:6f:d3:bc:3b:fe:be:9c:cc:ee:72:27:fe:
        7c:2f:7f:b3:60:7f:c0:b2:52:31:35:ff:c9:af:2f:be:71:be:
        7a:3b:b1:6e:d2:35:05:fe:fd:01:11:d0:7a:3c:7e:fa:a0:5d:
        23:87:87:de:e2:7d:23:ef:cf:fb:75:04:00:d4:b1:0c:50:5d:
        2d:77:84:cd:7f:6e:59:8c:af:87:fc:ae:4d:31:1a:a6:68:79:
        34:a5:7e:14:c0:d8:42:97:3d:79:e2:61:fb:c9:e2:60:bc:8a:
        41:f5:68:c9:4e:7a:fa:c2:ad:1b:fb:07:68:e0:86:a0:2f:16:
        89:e2:0a:40:6e:d3:5a:ae:c3:36:04:c2:2f:ce:26:22:6a:0e:
        a6:8c:ca:ab:f6:07:9c:49:87:c5:ba:41:c2:6e:2d:68:58:19:
        10:d8:88:cd:d3:3f:b3:a7
-----BEGIN CERTIFICATE-----
MIIF+jCCA+KgAwIBAgIBATANBgkqhkiG9w0BAQsFADCBgDELMAkGA1UEBhMCQ04x
DjAMBgNVBAgMBUhlTmFuMRAwDgYDVQQHDAdOYW5ZYW5nMQ8wDQYDVQQKDAZncHJv
eHkxCzAJBgNVBAsMAklUMRMwEQYDVQQDDApncHJveHkuY29tMRwwGgYJKoZIhvcN
AQkBFg1jYUBncHJveHkuY29tMB4XDTI0MTExNzEzNTkxN1oXDTI3MTExNzEzNTkx
N1owcjELMAkGA1UEBhMCQ04xDjAMBgNVBAgMBUhlTmFuMQ8wDQYDVQQKDAZncHJv
eHkxCzAJBgNVBAsMAklUMRMwEQYDVQQDDApncHJveHkuY29tMSAwHgYJKoZIhvcN
AQkBFhFzZXJ2ZXJAZ3Byb3h5LmNvbTCCAiIwDQYJKoZIhvcNAQEBBQADggIPADCC
AgoCggIBAKVLqeU/sW/98vE+MM8UqGnt9vwwue86euzJb6aQfNwfL1SXz3Bb8G5o
/7V6JeV4bQdNprGQbvCK86/s52aXAXm4PkRHfxOt9z1U/Nio554kpgN0b7SpR71l
HFcBfz5lD5BydDuwsnu17Fv8CZJJdGzrt00jKe189Umbl+nbW6t/VC2O2t9lhc4Z
BqdMu6wC+s3n4MJdrwgj+X7+4VBEnHqeknzNIwOOvJy2WD/VD2C1UMwjq2xxcWgp
Ig4xMTS3rjeUN9cBvUz+FPzsxC1NipyKp9va3tmKOabAFmwm36hhK1xd+Dm/iWlm
QFlkWUcSTX80J21Mco375pABcoFXUn32+/xkrbK920PhCm/wRCF2E3icGjad0BC2
S5zpPBIMs+hQQJ1fAywRhJDJfv9lI5BQcl/1naNrQy4LTmte+AdG9xePmTj2h9e1
P9MaRPitj7VoopaHaYu2gcYNOvvuAMgnb94PSwLtUqZTZDvlYLBKqe82Nt2EMCXs
lCn1OvJ1x4sptvhmLYnpz4cpX4Fnrgy1+t3eoMYrSXhKW2wq+mAch7wB87O3aWTT
RLVgNni8ugIxAQXvYgwPJ8+wHrmH6zR4bP1h6z5UNEaokEOCc5yjzeltTstAgbMD
ee4UJ8lf6eZH0FwMTQ4wqu3O6DFgBUGwkI6JAN6FXpJ7Z1RQjVuRAgMBAAGjgYsw
gYgwCQYDVR0TBAIwADAdBgNVHQ4EFgQUnk4qmBBkGutxa2ZUJ5xsZrzZAzgwHwYD
VR0jBBgwFoAUA7KZATC1eECEwhpfTolfyB/Ox/0wOwYDVR0RBDQwMoIMKi5ncHJv
eHkuY29tggoqLmRlbW8uY29thwTAqAq1hwTAqAq2hwTAqAq3hwTAqAq4MA0GCSqG
SIb3DQEBCwUAA4ICAQC3jhJyh2M1hmtkDn0tubE+YbB8n+6sg4hkOhhvmAO/9LQA
G7cdYoNqY00VQf+IMSzTdRl7HxktCg61EMt9Ub0okjD485XhyzGCdGid5BqVR98L
Ozriyt32WDCACnHmYGzAegyFjyXv07gZC+HjK6Cc1Haa8RCh4OP/GTdS4o89JKYS
Yj97I9eeDNevRJZrvxzabYyZ7toGtCZDQypieNxdLj0lWck8GJYek/QNaqemjPem
VhDILxa2tRNGOkraviaG6DGfJiadtdKsa/WFnpSF+xJav81gLW6EcwCHfkq8PG6Z
V8gRocMFXZOXFt+lUQtxXkGBBK0Driqd/abKfW4Tq/Hz0AW7TzxCi6sAvQYJQZ3V
3/zCa1RSczjnjzAnepnIeR5bpyHyaHrCjHDblmjLBneoXSkxy2psJx8lPyZGogrD
evJsC2K8xtihEIhpS3a+c6qNBvTOfOcB1vlv07w7/r6czO5yJ/58L3+zYH/AslIx
Nf/Jry++cb56O7Fu0jUF/v0BEdB6PH76oF0jh4fe4n0j78/7dQQA1LEMUF0td4TN
f25ZjK+H/K5NMRqmaHk0pX4UwNhClz154mH7yeJgvIpB9WjJTnr6wq0b+wdo4Iag
LxaJ4gpAbtNarsM2BMIvziYiag6mjMqr9gecSYfFukHCbi1oWBkQ2IjN0z+zpw==
-----END CERTIFICATE-----
